; Function Attrs: mustprogress uwtable
define void @_ZN19OpenColorIO_v2_4dev15PlanarImageDescC2EPvS1_S1_S1_llNS_8BitDepthEll(ptr nocapture noundef nonnull align 8 dereferenceable(16) %this, ptr noundef %rData, ptr noundef %gData, ptr noundef %bData, ptr noundef %aData, i64 noundef %width, i64 noundef %height, i32 noundef %bitDepth, i64 noundef %xStrideBytes, i64 noundef %yStrideBytes) unnamed_addr #3 align 2 personality ptr @__gxx_personality_v0 {
entry:
  store ptr getelementptr inbounds ({ [15 x ptr] }, ptr @_ZTVN19OpenColorIO_v2_4dev15PlanarImageDescE, i64 0, i32 0, i64 2), ptr %this, align 8
  %call = tail call noalias noundef nonnull dereferenceable(80) ptr @_Znwm(i64 noundef 80) #21
  %m_impl = getelementptr inbounds i8, ptr %this, i64 8
  %m_width.i = getelementptr inbounds i8, ptr %call, i64 40
  tail call void @llvm.memset.p0.i64(ptr noundef nonnull align 8 dereferenceable(80) %call, i8 0, i64 80, i1 false)
  store ptr %call, ptr %m_impl, align 8
  %cmp = icmp eq ptr %rData, null
  %cmp2 = icmp eq ptr %gData, null
  %or.cond = or i1 %cmp, %cmp2
  %cmp4 = icmp eq ptr %bData, null
  %or.cond1 = or i1 %or.cond, %cmp4
  br i1 %or.cond1, label %if.then, label %if.end

if.then:                                          ; preds = %entry
  %exception = tail call ptr @__cxa_allocate_exception(i64 16) #18
  invoke void @_ZN19OpenColorIO_v2_4dev9ExceptionC1EPKc(ptr noundef nonnull align 8 dereferenceable(16) %exception, ptr noundef nonnull @.str.21)
          to label %invoke.cont6 unwind label %lpad5

invoke.cont6:                                     ; preds = %if.then
  tail call void @__cxa_throw(ptr nonnull %exception, ptr nonnull @_ZTIN19OpenColorIO_v2_4dev9ExceptionE, ptr nonnull @_ZN19OpenColorIO_v2_4dev9ExceptionD1Ev) #20
  unreachable

lpad5:                                            ; preds = %if.then
  %0 = landingpad { ptr, i32 }
          cleanup
  br label %ehcleanup

if.end:                                           ; preds = %entry
  %cmp7 = icmp slt i64 %width, 1
  %cmp9 = icmp slt i64 %height, 1
  %or.cond2 = or i1 %cmp7, %cmp9
  br i1 %or.cond2, label %if.then10, label %if.end14

if.then10:                                        ; preds = %if.end
  %exception11 = tail call ptr @__cxa_allocate_exception(i64 16) #18
  invoke void @_ZN19OpenColorIO_v2_4dev9ExceptionC1EPKc(ptr noundef nonnull align 8 dereferenceable(16) %exception11, ptr noundef nonnull @.str.22)
          to label %invoke.cont13 unwind label %lpad12

invoke.cont13:                                    ; preds = %if.then10
  tail call void @__cxa_throw(ptr nonnull %exception11, ptr nonnull @_ZTIN19OpenColorIO_v2_4dev9ExceptionE, ptr nonnull @_ZN19OpenColorIO_v2_4dev9ExceptionD1Ev) #20
  unreachable

lpad12:                                           ; preds = %if.then10
  %1 = landingpad { ptr, i32 }
          cleanup
  br label %ehcleanup

if.end14:                                         ; preds = %if.end
  %m_bitDepth = getelementptr inbounds i8, ptr %call, i64 32
  store i32 %bitDepth, ptr %m_bitDepth, align 8
  store ptr %rData, ptr %call, align 8
  %m_gData = getelementptr inbounds i8, ptr %call, i64 8
  store ptr %gData, ptr %m_gData, align 8
  %m_bData = getelementptr inbounds i8, ptr %call, i64 16
  store ptr %bData, ptr %m_bData, align 8
  %m_aData = getelementptr inbounds i8, ptr %call, i64 24
  store ptr %aData, ptr %m_aData, align 8
  store i64 %width, ptr %m_width.i, align 8
  %m_height = getelementptr inbounds i8, ptr %call, i64 48
  store i64 %height, ptr %m_height, align 8
  %call30 = tail call noundef i32 @_ZN19OpenColorIO_v2_4dev21GetChannelSizeInBytesENS_8BitDepthE(i32 noundef %bitDepth)
  %cmp31 = icmp eq i64 %xStrideBytes, -9223372036854775808
  %conv = zext i32 %call30 to i64
  %cond = select i1 %cmp31, i64 %conv, i64 %xStrideBytes
  %2 = load ptr, ptr %m_impl, align 8
  %m_xStrideBytes = getelementptr inbounds i8, ptr %2, i64 56
  store i64 %cond, ptr %m_xStrideBytes, align 8
  %cmp34 = icmp eq i64 %yStrideBytes, -9223372036854775808
  %.pre = load ptr, ptr %m_impl, align 8
  br i1 %cmp34, label %cond.true35, label %cond.end40

cond.true35:                                      ; preds = %if.end14
  %m_xStrideBytes38 = getelementptr inbounds i8, ptr %.pre, i64 56
  %3 = load i64, ptr %m_xStrideBytes38, align 8
  %mul = mul nsw i64 %3, %width
  br label %cond.end40

cond.end40:                                       ; preds = %if.end14, %cond.true35
  %cond41 = phi i64 [ %mul, %cond.true35 ], [ %yStrideBytes, %if.end14 ]
  %m_yStrideBytes = getelementptr inbounds i8, ptr %.pre, i64 64
  store i64 %cond41, ptr %m_yStrideBytes, align 8
  %4 = load ptr, ptr %m_impl, align 8
  %m_xStrideBytes.i = getelementptr inbounds i8, ptr %4, i64 56
  %5 = load i64, ptr %m_xStrideBytes.i, align 8
  %cmp.i = icmp eq i64 %5, 4
  %m_bitDepth.i = getelementptr inbounds i8, ptr %4, i64 32
  %6 = load i32, ptr %m_bitDepth.i, align 8
  %cmp2.i = icmp eq i32 %6, 8
  %7 = select i1 %cmp.i, i1 %cmp2.i, i1 false
  %m_isFloat = getelementptr inbounds i8, ptr %4, i64 72
  %frombool = zext i1 %7 to i8
  store i8 %frombool, ptr %m_isFloat, align 8
  %8 = load ptr, ptr %m_impl, align 8
  tail call void @_ZNK19OpenColorIO_v2_4dev15PlanarImageDesc4Impl8validateEv(ptr noundef nonnull align 8 dereferenceable(73) %8)
  ret void

ehcleanup:                                        ; preds = %lpad12, %lpad5
  %exception11.sink = phi ptr [ %exception11, %lpad12 ], [ %exception, %lpad5 ]
  %.pn = phi { ptr, i32 } [ %1, %lpad12 ], [ %0, %lpad5 ]
  tail call void @__cxa_free_exception(ptr %exception11.sink) #18
  resume { ptr, i32 } %.pn
}